; Function Attrs: mustprogress nounwind uwtable
define dso_local void @_ZN5clang4ento13ModelInjectorC2ERNS_16CompilerInstanceE(ptr noundef nonnull align 8 dereferenceable(40) %0, ptr noundef nonnull align 8 dereferenceable(352) %1) unnamed_addr #0 align 2 {
  tail call void @_ZN5clang12CodeInjectorC2Ev(ptr noundef nonnull align 8 dereferenceable(8) %0) #10
  store ptr getelementptr inbounds inrange(-16, 32) (i8, ptr @_ZTVN5clang4ento13ModelInjectorE, i64 16), ptr %0, align 8
  %3 = getelementptr inbounds nuw i8, ptr %0, i64 8
  store ptr %1, ptr %3, align 8
  %4 = getelementptr inbounds nuw i8, ptr %0, i64 16
  %5 = getelementptr inbounds i8, ptr %0, i64 36
  tail call void @llvm.memset.p0.i64(ptr noundef nonnull align 8 dereferenceable(20) %4, i8 0, i64 20, i1 false)
  store i32 16, ptr %5, align 4
  ret void
}